Microchip MPLAB XC8 Compiler V2.36

Linker command line:

-W-3 --edf=C:\Program Files\Microchip\xc8\v2.36\pic\dat\en_msgs.txt -cn \
  -h+dist/default/production\Oled_0.96.X.production.sym \
  --cmf=dist/default/production\Oled_0.96.X.production.cmf -z -Q18F16Q40 \
  -oC:\Users\Carmona\AppData\Local\Temp\xcAspro.4 --defsym=__MPLAB_BUILD=1 \
  -Mdist/default/production/Oled_0.96.X.production.map \
  --md=C:\Users\Carmona\AppData\Local\Temp\xcAspro.dat -E1 \
  -ver=XC8 Compiler --acfsm=1493 -ACODE=00h-0FFFFh -ACONST=00h-0FFFFh \
  -ASMALLCONST=01500h-015FFhx235 -AMEDIUMCONST=01500h-0FFFFh \
  -ACOMRAM=0501h-055Fh -AABS1=0500h-014FFh -ABIGRAM=0501h-014FFh \
  -ARAM=0560h-05FFh,0600h-06FFhx15 -ABANK5=0560h-05FFh -ABANK6=0600h-06FFh \
  -ABANK7=0700h-07FFh -ABANK8=0800h-08FFh -ABANK9=0900h-09FFh \
  -ABANK10=0A00h-0AFFh -ABANK11=0B00h-0BFFh -ABANK12=0C00h-0CFFh \
  -ABANK13=0D00h-0DFFh -ABANK14=0E00h-0EFFh -ABANK15=0F00h-0FFFh \
  -ABANK16=01000h-010FFh -ABANK17=01100h-011FFh -ABANK18=01200h-012FFh \
  -ABANK19=01300h-013FFh -ABANK20=01400h-014FFh \
  -ASFR=00h-0FFhx4,0400h-045Fh,0460h-04FFh,01500h-015FFh \
  -ABIGSFR=00h-04FFh,01500h-015FFh -ACONFIG=0300000h-0300011h \
  -AIDLOC=0200000h-020003Fh -AEEDATA=0380000h-03801FFh -peeprom_data=EEDATA \
  -preset_vec=00h -ppowerup=CODE,init -pramtop=01500h \
  -psmallconst=SMALLCONST -pmediumconst=MEDIUMCONST -pconst=CONST \
  -AFARRAM=00h-00h \
  -prdata=COMRAM,nvrram=COMRAM,nvbit=COMRAM,rbss=COMRAM,rbit=COMRAM \
  -pfarbss=FARRAM,fardata=FARRAM,nvFARRAM=FARRAM \
  -pintsave_regs=BIGRAM,bigbss=BIGRAM,bigdata=BIGRAM -pbss=RAM \
  -pidata=CODE,irdata=CODE,ibigdata=CODE,ifardata=CODE -prparam=COMRAM \
  C:\Users\Carmona\AppData\Local\Temp\xcAspro.o \
  dist/default/production\Oled_0.96.X.production.o 

Object code version is 3.11

Machine type is 18F16Q40



                Name                               Link     Load   Length Selector   Space Scale
C:\Users\Carmona\AppData\Local\Temp\xcAspro.o
                idloc                            200000   200000       40        0       5
                config                           300000   300000        A        0       4
                init                               FFFC     FFFC        4     7FFE       0
                reset_vec                             0        0        4        0       0
dist/default/production\Oled_0.96.X.production.o
                idloc                            200000   200000       40        0       5
                config                           300000   300000        A        0       4
                mediumconst                        EBB6     EBB6     1446     75DB       0
                text73                             E626     E626      190     7313       0
                text72                             DA3C     DA3C       1E     6D1E       0
                text71                             D83E     D83E        8     6C1F       0
                text70                             D884     D884        C     6C42       0
                text69                             D9B0     D9B0       1C     6CD8       0
                text68                             DB16     DB16       2A     6D8B       0
                text67                             D802     D802        6     6C01       0
                text66                             D808     D808        6     6C04       0
                text65                             D80E     D80E        6     6C07       0
                text64                             D8FC     D8FC       16     6C7E       0
                text63                             D912     D912       16     6C89       0
                text62                             D928     D928       16     6C94       0
                text61                             DCE8     DCE8       52     6E74       0
                text60                             DA5A     DA5A       22     6D2D       0
                text59                             E00E     E00E       82     7007       0
                text58                             D980     D980       18     6CC0       0
                text57                             DB6A     DB6A       2C     6DB5       0
                text56                             D7F2     D7F2        4     6BF9       0
                text55                             D7F6     D7F6        4     6BFB       0
                text54                             DB96     DB96       2C     6DCB       0
                text53                             DBC2     DBC2       2C     6DE1       0
                text52                             DBEE     DBEE       2C     6DF7       0
                text51                             DC50     DC50       4C     6E28       0
                text50                             D866     D866        A     6C33       0
                text49                             D814     D814        6     6C0A       0
                text48                             D81A     D81A        6     6C0D       0
                text47                             D8C6     D8C6       10     6C63       0
                text46                             D870     D870        A     6C38       0
                text45                             D820     D820        6     6C10       0
                text44                             D93E     D93E       16     6C9F       0
                text43                             D826     D826        6     6C13       0
                text42                             D82C     D82C        6     6C16       0
                text41                             D832     D832        6     6C19       0
                text40                             D838     D838        6     6C1C       0
                text39                             D954     D954       16     6CAA       0
                text38                             D96A     D96A       16     6CB5       0
                text37                             D846     D846        8     6C23       0
                text36                             D87A     D87A        A     6C3D       0
                text35                             DB40     DB40       2A     6DA0       0
                text34                             D8E8     D8E8       14     6C74       0
                text33                             E39A     E39A      11E     71CD       0
                text32                             E1A8     E1A8       98     70D4       0
                text31                             DF96     DF96       78     6FCB       0
                text30                             E240     E240       9C     7120       0
                text29                             D890     D890        C     6C48       0
                text28                             D7FA     D7FA        4     6BFD       0
                text27                             D7FE     D7FE        4     6BFF       0
                text26                             DA9E     DA9E       28     6D4F       0
                text25                             D84E     D84E        8     6C27       0
                text24                             D89C     D89C        E     6C4E       0
                text23                             D856     D856        8     6C2B       0
                text22                             D8AA     D8AA        E     6C55       0
                text21                             DE50     DE50       66     6F28       0
                text20                             DEB6     DEB6       6E     6F5B       0
                text19                             D8B8     D8B8        E     6C5C       0
                text18                             DF24     DF24       72     6F92       0
                text17                             DD3A     DD3A       5A     6E9D       0
                text16                             D9CC     D9CC       1C     6CE6       0
                text15                             DC9C     DC9C       4C     6E4E       0
                text14                             D85E     D85E        8     6C2F       0
                text13                             DAC6     DAC6       28     6D63       0
                text12                             E11A     E11A       8E     708D       0
                text11                             D998     D998       18     6CCC       0
                text10                             DD94     DD94       5A     6ECA       0
                text9                              DA7C     DA7C       22     6D3E       0
                text8                              E4B8     E4B8      16E     725C       0
                text7                              E2DC     E2DC       BE     716E       0
                text6                              E090     E090       8A     7048       0
                text5                              DAEE     DAEE       28     6D77       0
                text4                              D9E8     D9E8       1C     6CF4       0
                text3                              DDEE     DDEE       62     6EF7       0
                text2                              DA04     DA04       1C     6D02       0
                text1                              D8D6     D8D6       12     6C6B       0
                text0                              DA20     DA20       1C     6D10       0
                cstackCOMRAM                        501      501       33      501       1
                dataBIGRAM                         1100     1100      400     1100       1
                bssCOMRAM                           534      534       2B      501       1
                cinit                              DC1A     DC1A       36     6E0D       0
                idataBIGRAM                        E7B6     E7B6      400     E7B6       0

TOTAL           Name                               Link     Load   Length     Space
        CLASS   CODE           
                init                               FFFC     FFFC        4         0
                reset_vec                             0        0        4         0
                text73                             E626     E626      190         0
                text72                             DA3C     DA3C       1E         0
                text71                             D83E     D83E        8         0
                text70                             D884     D884        C         0
                text69                             D9B0     D9B0       1C         0
                text68                             DB16     DB16       2A         0
                text67                             D802     D802        6         0
                text66                             D808     D808        6         0
                text65                             D80E     D80E        6         0
                text64                             D8FC     D8FC       16         0
                text63                             D912     D912       16         0
                text62                             D928     D928       16         0
                text61                             DCE8     DCE8       52         0
                text60                             DA5A     DA5A       22         0
                text59                             E00E     E00E       82         0
                text58                             D980     D980       18         0
                text57                             DB6A     DB6A       2C         0
                text56                             D7F2     D7F2        4         0
                text55                             D7F6     D7F6        4         0
                text54                             DB96     DB96       2C         0
                text53                             DBC2     DBC2       2C         0
                text52                             DBEE     DBEE       2C         0
                text51                             DC50     DC50       4C         0
                text50                             D866     D866        A         0
                text49                             D814     D814        6         0
                text48                             D81A     D81A        6         0
                text47                             D8C6     D8C6       10         0
                text46                             D870     D870        A         0
                text45                             D820     D820        6         0
                text44                             D93E     D93E       16         0
                text43                             D826     D826        6         0
                text42                             D82C     D82C        6         0
                text41                             D832     D832        6         0
                text40                             D838     D838        6         0
                text39                             D954     D954       16         0
                text38                             D96A     D96A       16         0
                text37                             D846     D846        8         0
                text36                             D87A     D87A        A         0
                text35                             DB40     DB40       2A         0
                text34                             D8E8     D8E8       14         0
                text33                             E39A     E39A      11E         0
                text32                             E1A8     E1A8       98         0
                text31                             DF96     DF96       78         0
                text30                             E240     E240       9C         0
                text29                             D890     D890        C         0
                text28                             D7FA     D7FA        4         0
                text27                             D7FE     D7FE        4         0
                text26                             DA9E     DA9E       28         0
                text25                             D84E     D84E        8         0
                text24                             D89C     D89C        E         0
                text23                             D856     D856        8         0
                text22                             D8AA     D8AA        E         0
                text21                             DE50     DE50       66         0
                text20                             DEB6     DEB6       6E         0
                text19                             D8B8     D8B8        E         0
                text18                             DF24     DF24       72         0
                text17                             DD3A     DD3A       5A         0
                text16                             D9CC     D9CC       1C         0
                text15                             DC9C     DC9C       4C         0
                text14                             D85E     D85E        8         0
                text13                             DAC6     DAC6       28         0
                text12                             E11A     E11A       8E         0
                text11                             D998     D998       18         0
                text10                             DD94     DD94       5A         0
                text9                              DA7C     DA7C       22         0
                text8                              E4B8     E4B8      16E         0
                text7                              E2DC     E2DC       BE         0
                text6                              E090     E090       8A         0
                text5                              DAEE     DAEE       28         0
                text4                              D9E8     D9E8       1C         0
                text3                              DDEE     DDEE       62         0
                text2                              DA04     DA04       1C         0
                text1                              D8D6     D8D6       12         0
                text0                              DA20     DA20       1C         0
                cinit                              DC1A     DC1A       36         0
                idataBIGRAM                        E7B6     E7B6      400         0

        CLASS   CONST          

        CLASS   SMALLCONST     

        CLASS   MEDIUMCONST    
                mediumconst                        EBB6     EBB6     1446         0

        CLASS   COMRAM         
                cstackCOMRAM                        501      501       33         1
                bssCOMRAM                           534      534       2B         1

        CLASS   ABS1           

        CLASS   BIGRAM         
                dataBIGRAM                         1100     1100      400         1

        CLASS   RAM            

        CLASS   BANK5          

        CLASS   BANK6          

        CLASS   BANK7          

        CLASS   BANK8          

        CLASS   BANK9          

        CLASS   BANK10         

        CLASS   BANK11         

        CLASS   BANK12         

        CLASS   BANK13         

        CLASS   BANK14         

        CLASS   BANK15         

        CLASS   BANK16         

        CLASS   BANK17         

        CLASS   BANK18         

        CLASS   BANK19         

        CLASS   BANK20         

        CLASS   SFR            

        CLASS   BIGSFR         

        CLASS   CONFIG         
                config                           300000   300000        A         4

        CLASS   IDLOC          
                idloc                            200000   200000       40         5

        CLASS   EEDATA         

        CLASS   FARRAM         

        CLASS   HEAP           

        CLASS   STACK          



SEGMENTS        Name                           Load    Length   Top    Selector   Space  Class

                reset_vec                      000000  000004  000004         0       0  CODE    
                cstackCOMRAM                   000501  00005E  00055F       501       1  COMRAM  
                dataBIGRAM                     001100  000400  001500      1100       1  BIGRAM  
                text56                         00D7F2  000004  00D7F6      6BF9       0  CODE    
                text55                         00D7F6  000004  00D7FA      6BFB       0  CODE    
                text28                         00D7FA  000004  00D7FE      6BFD       0  CODE    
                text27                         00D7FE  000004  00D802      6BFF       0  CODE    
                text67                         00D802  000006  00D808      6C01       0  CODE    
                text66                         00D808  000006  00D80E      6C04       0  CODE    
                text65                         00D80E  000006  00D814      6C07       0  CODE    
                text49                         00D814  000006  00D81A      6C0A       0  CODE    
                text48                         00D81A  000006  00D820      6C0D       0  CODE    
                text45                         00D820  000006  00D826      6C10       0  CODE    
                text43                         00D826  000006  00D82C      6C13       0  CODE    
                text42                         00D82C  000006  00D832      6C16       0  CODE    
                text41                         00D832  000006  00D838      6C19       0  CODE    
                text40                         00D838  000006  00D83E      6C1C       0  CODE    
                text71                         00D83E  000008  00D846      6C1F       0  CODE    
                text37                         00D846  000008  00D84E      6C23       0  CODE    
                text25                         00D84E  000008  00D856      6C27       0  CODE    
                text23                         00D856  000008  00D85E      6C2B       0  CODE    
                text14                         00D85E  000008  00D866      6C2F       0  CODE    
                text50                         00D866  00000A  00D870      6C33       0  CODE    
                text46                         00D870  00000A  00D87A      6C38       0  CODE    
                text36                         00D87A  00000A  00D884      6C3D       0  CODE    
                text70                         00D884  00000C  00D890      6C42       0  CODE    
                text29                         00D890  00000C  00D89C      6C48       0  CODE    
                text24                         00D89C  00000E  00D8AA      6C4E       0  CODE    
                text22                         00D8AA  00000E  00D8B8      6C55       0  CODE    
                text19                         00D8B8  00000E  00D8C6      6C5C       0  CODE    
                text47                         00D8C6  000010  00D8D6      6C63       0  CODE    
                text1                          00D8D6  000012  00D8E8      6C6B       0  CODE    
                text34                         00D8E8  000014  00D8FC      6C74       0  CODE    
                text64                         00D8FC  000016  00D912      6C7E       0  CODE    
                text63                         00D912  000016  00D928      6C89       0  CODE    
                text62                         00D928  000016  00D93E      6C94       0  CODE    
                text44                         00D93E  000016  00D954      6C9F       0  CODE    
                text39                         00D954  000016  00D96A      6CAA       0  CODE    
                text38                         00D96A  000016  00D980      6CB5       0  CODE    
                text58                         00D980  000018  00D998      6CC0       0  CODE    
                text11                         00D998  000018  00D9B0      6CCC       0  CODE    
                text69                         00D9B0  00001C  00D9CC      6CD8       0  CODE    
                text16                         00D9CC  00001C  00D9E8      6CE6       0  CODE    
                text4                          00D9E8  00001C  00DA04      6CF4       0  CODE    
                text2                          00DA04  00001C  00DA20      6D02       0  CODE    
                text0                          00DA20  00001C  00DA3C      6D10       0  CODE    
                text72                         00DA3C  00001E  00DA5A      6D1E       0  CODE    
                text60                         00DA5A  000022  00DA7C      6D2D       0  CODE    
                text9                          00DA7C  000022  00DA9E      6D3E       0  CODE    
                text26                         00DA9E  000028  00DAC6      6D4F       0  CODE    
                text13                         00DAC6  000028  00DAEE      6D63       0  CODE    
                text5                          00DAEE  000028  00DB16      6D77       0  CODE    
                text68                         00DB16  00002A  00DB40      6D8B       0  CODE    
                text35                         00DB40  00002A  00DB6A      6DA0       0  CODE    
                text57                         00DB6A  00002C  00DB96      6DB5       0  CODE    
                text54                         00DB96  00002C  00DBC2      6DCB       0  CODE    
                text53                         00DBC2  00002C  00DBEE      6DE1       0  CODE    
                text52                         00DBEE  00002C  00DC1A      6DF7       0  CODE    
                cinit                          00DC1A  000036  00DC50      6E0D       0  CODE    
                text51                         00DC50  00004C  00DC9C      6E28       0  CODE    
                text15                         00DC9C  00004C  00DCE8      6E4E       0  CODE    
                text61                         00DCE8  000052  00DD3A      6E74       0  CODE    
                text17                         00DD3A  00005A  00DD94      6E9D       0  CODE    
                text10                         00DD94  00005A  00DDEE      6ECA       0  CODE    
                text3                          00DDEE  000062  00DE50      6EF7       0  CODE    
                text21                         00DE50  000066  00DEB6      6F28       0  CODE    
                text20                         00DEB6  00006E  00DF24      6F5B       0  CODE    
                text18                         00DF24  000072  00DF96      6F92       0  CODE    
                text31                         00DF96  000078  00E00E      6FCB       0  CODE    
                text59                         00E00E  000082  00E090      7007       0  CODE    
                text6                          00E090  00008A  00E11A      7048       0  CODE    
                text12                         00E11A  00008E  00E1A8      708D       0  CODE    
                text32                         00E1A8  000098  00E240      70D4       0  CODE    
                text30                         00E240  00009C  00E2DC      7120       0  CODE    
                text7                          00E2DC  0000BE  00E39A      716E       0  CODE    
                text33                         00E39A  00011E  00E4B8      71CD       0  CODE    
                text8                          00E4B8  00016E  00E626      725C       0  CODE    
                text73                         00E626  000190  00E7B6      7313       0  CODE    
                idataBIGRAM                    00E7B6  000400  00EBB6      E7B6       0  CODE    
                mediumconst                    00EBB6  001446  00FFFC      75DB       0  MEDIUMCO
                init                           00FFFC  000004  010000      7FFE       0  CODE    


UNUSED ADDRESS RANGES

        Name                Unused          Largest block    Delta
        BANK10           000A00-000AFF              100
        BANK11           000B00-000BFF              100
        BANK12           000C00-000CFF              100
        BANK13           000D00-000DFF              100
        BANK14           000E00-000EFF              100
        BANK15           000F00-000FFF              100
        BANK16           001000-0010FF              100
        BANK5            000560-0005FF               A0
        BANK6            000600-0006FF              100
        BANK7            000700-0007FF              100
        BANK8            000800-0008FF              100
        BANK9            000900-0009FF              100
        BIGRAM           00055F-0010FF              BA1
        BIGSFR           000000-0004FF              500
                         001500-0015FF              100
        CODE             000004-00D7F1             D7EE
        COMRAM           00055F-00055F                1
        CONFIG           30000A-300011                8
        CONST            000004-00D7F1             D7EE
        EEDATA           380000-3801FF              200
        MEDIUMCONST      001500-00D7F1             C2F2
        RAM              000560-0010FF              100
        SFR              000000-0004FF              100
                         001500-0015FF              100
        SMALLCONST       001500-00D7F1              100

                                  Symbol Table

I2C1_Close@returnValue                cstackCOMRAM 000501
I2C1_DO_RX@retFsmState                cstackCOMRAM 000510
I2C1_DO_TX@dataTx                     cstackCOMRAM 000510
I2C1_DO_TX@retFsmState                cstackCOMRAM 000511
I2C1_MasterOperation@read             cstackCOMRAM 000514
I2C1_MasterOperation@returnValue      cstackCOMRAM 000515
I2C1_MasterSendTxData@data            cstackCOMRAM 000501
I2C1_MasterSetCounter@counter         cstackCOMRAM 000501
I2C1_Open@address                     cstackCOMRAM 000501
I2C1_Open@returnValue                 cstackCOMRAM 000502
I2C1_SetAddressNackCallback@cb        cstackCOMRAM 000506
I2C1_SetAddressNackCallback@ptr       cstackCOMRAM 000508
I2C1_SetBuffer@buffer                 cstackCOMRAM 000501
I2C1_SetBuffer@bufferSize             cstackCOMRAM 000503
I2C1_SetCallback@cb                   cstackCOMRAM 000501
I2C1_SetCallback@idx                  cstackCOMRAM 000505
I2C1_SetCallback@ptr                  cstackCOMRAM 000503
I2C1_SetDataCompleteCallback@cb       cstackCOMRAM 000506
I2C1_SetDataCompleteCallback@ptr      cstackCOMRAM 000508
I2C1_WriteNBytes@address              cstackCOMRAM 00051A
I2C1_WriteNBytes@data                 cstackCOMRAM 000516
I2C1_WriteNBytes@len                  cstackCOMRAM 000518
OLED_SetFont@font                     cstackCOMRAM 000501
OLED_Update@data_I2C                  cstackCOMRAM 00051F
OLED_Update@i                         cstackCOMRAM 000530
OLED_Update@x                         cstackCOMRAM 00051E
_ACTCON                               (abs)        0000AC
_ANSELA                               (abs)        000400
_ANSELB                               (abs)        000408
_ANSELC                               (abs)        000410
_FONT_1                               mediumconst  00FDB5
_FONT_2                               mediumconst  00F79B
_FONT_3                               mediumconst  00EBB7
_I2C1CLK                              (abs)        00029E
_I2C1CNTH                             (abs)        00028D
_I2C1CNTL                             (abs)        00028C
_I2C1CON0                             (abs)        000294
_I2C1CON0bits                         (abs)        000294
_I2C1CON1                             (abs)        000295
_I2C1CON1bits                         (abs)        000295
_I2C1CON2                             (abs)        000296
_I2C1ERR                              (abs)        000297
_I2C1ERRbits                          (abs)        000297
_I2C1PIE                              (abs)        00029B
_I2C1PIEbits                          (abs)        00029B
_I2C1PIR                              (abs)        00029A
_I2C1PIRbits                          (abs)        00029A
_I2C1RXB                              (abs)        00028A
_I2C1SCLPPS                           (abs)        000271
_I2C1SDAPPS                           (abs)        000270
_I2C1STAT1bits                        (abs)        000299
_I2C1TXB                              (abs)        00028B
_I2C1_CallbackReturnReset             text55       00D7F6
_I2C1_CallbackReturnStop              text56       00D7F2
_I2C1_ClearInterruptFlags             text61       00DCE8
_I2C1_Close                           text68       00DB16
_I2C1_DO_ADDRESS_NACK                 text21       00DE50
_I2C1_DO_BUS_COLLISION                text20       00DEB6
_I2C1_DO_BUS_ERROR                    text19       00D8B8
_I2C1_DO_IDLE                         text36       00D87A
_I2C1_DO_RESET                        text22       00D8AA
_I2C1_DO_RX                           text32       00E1A8
_I2C1_DO_RX_ACK                       text25       00D84E
_I2C1_DO_RX_EMPTY                     text30       00E240
_I2C1_DO_RX_NACK_RESTART              text23       00D856
_I2C1_DO_RX_NACK_STOP                 text24       00D89C
_I2C1_DO_SEND_ADR_READ                text35       00DB40
_I2C1_DO_SEND_ADR_WRITE               text34       00D8E8
_I2C1_DO_SEND_RESTART                 text27       00D7FE
_I2C1_DO_SEND_RESTART_READ            text29       00D890
_I2C1_DO_SEND_RESTART_WRITE           text28       00D7FA
_I2C1_DO_SEND_STOP                    text26       00DA9E
_I2C1_DO_TX                           text33       00E39A
_I2C1_DO_TX$720                       cstackCOMRAM 00050E
_I2C1_DO_TX_ACK                       text37       00D846
_I2C1_DO_TX_EMPTY                     text31       00DF96
_I2C1_Initialize                      text5        00DAEE
_I2C1_MasterClearCountFlag            text67       00D802
_I2C1_MasterClearIrq                  text71       00D83E
_I2C1_MasterClearNackFlag             text66       00D808
_I2C1_MasterClearStopFlag             text65       00D80E
_I2C1_MasterClose                     text70       00D884
_I2C1_MasterDisableIrq                text69       00D9B0
_I2C1_MasterDisableRestart            text49       00D814
_I2C1_MasterEnableRestart             text48       00D81A
_I2C1_MasterFsm                       text18       00DF24
_I2C1_MasterGetCounter                text40       00D838
_I2C1_MasterGetRxData                 text45       00D820
_I2C1_MasterIsCountFlagSet            text64       00D8FC
_I2C1_MasterIsNack                    text39       00D954
_I2C1_MasterIsNackFlagSet             text63       00D912
_I2C1_MasterIsRxBufFull               text44       00D93E
_I2C1_MasterIsStopFlagSet             text62       00D928
_I2C1_MasterIsTxBufEmpty              text38       00D96A
_I2C1_MasterOpen                      text13       00DAC6
_I2C1_MasterOperation                 text15       00DC9C
_I2C1_MasterResetBus                  text50       00D866
_I2C1_MasterSendAck                   text43       00D826
_I2C1_MasterSendNack                  text42       00D82C
_I2C1_MasterSendTxData                text46       00D870
_I2C1_MasterSetCounter                text47       00D8C6
_I2C1_MasterStop                      text41       00D832
_I2C1_MasterWaitForEvent              text17       00DD3A
_I2C1_MasterWrite                     text14       00D85E
_I2C1_Open                            text12       00E11A
_I2C1_Poller                          text16       00D9CC
_I2C1_SetAddressNackCallback          text11       00D998
_I2C1_SetBuffer                       text60       00DA5A
_I2C1_SetCallback                     text59       00E00E
_I2C1_SetDataCompleteCallback         text58       00D980
_I2C1_Status                          bssCOMRAM    000534
_I2C1_WriteNBytes                     text10       00DD94
_INLVLA                               (abs)        000404
_INLVLB                               (abs)        00040C
_INLVLC                               (abs)        000414
_LATA                                 (abs)        0004BE
_LATB                                 (abs)        0004BF
_LATC                                 (abs)        0004C0
_ODCONA                               (abs)        000402
_ODCONB                               (abs)        00040A
_ODCONC                               (abs)        000412
_OLED_ClearDisplay                    text72       00DA3C
_OLED_Init                            text7        00E2DC
_OLED_SetFont                         text6        00E090
_OLED_Update                          text8        00E4B8
_OSCCON1                              (abs)        0000AD
_OSCCON3                              (abs)        0000AF
_OSCEN                                (abs)        0000B3
_OSCFRQ                               (abs)        0000B1
_OSCILLATOR_Initialize                text4        00D9E8
_OSCTUNE                              (abs)        0000B0
_PIE7bits                             (abs)        0004AF
_PIN_MANAGER_Initialize               text3        00DDEE
_PIR7bits                             (abs)        0004BA
_PMD0                                 (abs)        000063
_PMD1                                 (abs)        000064
_PMD2                                 (abs)        000065
_PMD3                                 (abs)        000066
_PMD4                                 (abs)        000067
_PMD5                                 (abs)        000068
_PMD_Initialize                       text2        00DA04
_RA4PPS                               (abs)        000205
_RA5PPS                               (abs)        000206
_SLRCONA                              (abs)        000403
_SLRCONB                              (abs)        00040B
_SLRCONC                              (abs)        000413
_SYSTEM_Initialize                    text1        00D8D6
_TRISA                                (abs)        0004C6
_TRISB                                (abs)        0004C7
_TRISC                                (abs)        0004C8
_WPUA                                 (abs)        000401
_WPUB                                 (abs)        000409
_WPUC                                 (abs)        000411
__HRAM                                (abs)        000000
__Habs1                               abs1         000000
__Hbank10                             bank10       000000
__Hbank11                             bank11       000000
__Hbank12                             bank12       000000
__Hbank13                             bank13       000000
__Hbank14                             bank14       000000
__Hbank15                             bank15       000000
__Hbank16                             bank16       000000
__Hbank17                             bank17       000000
__Hbank18                             bank18       000000
__Hbank19                             bank19       000000
__Hbank20                             bank20       000000
__Hbank5                              bank5        000000
__Hbank6                              bank6        000000
__Hbank7                              bank7        000000
__Hbank8                              bank8        000000
__Hbank9                              bank9        000000
__Hbigbss                             bigbss       000000
__Hbigdata                            bigdata      000000
__Hbigram                             bigram       000000
__Hbigsfr                             bigsfr       000000
__Hbss                                bss          000000
__HbssCOMRAM                          bssCOMRAM    000000
__Hcinit                              cinit        000000
__Hclrtext                            clrtext      000000
__Hcomram                             comram       000000
__Hconfig                             config       30000A
__Hconst                              const        000000
__HcstackCOMRAM                       cstackCOMRAM 000000
__Hdata                               data         000000
__HdataBIGRAM                         dataBIGRAM   000000
__Heeprom_data                        eeprom_data  000000
__Hfarbss                             farbss       000000
__Hfardata                            fardata      000000
__Hheap                               heap         000000
__Hibigdata                           ibigdata     000000
__Hidata                              idata        000000
__HidataBIGRAM                        idataBIGRAM  000000
__Hidloc                              idloc        200040
__Hifardata                           ifardata     000000
__Hinit                               init         010000
__Hintsave_regs                       intsave_regs 000000
__Hirdata                             irdata       000000
__Hmediumconst                        mediumconst  00FFFC
__HnvFARRAM                           nvFARRAM     000000
__Hnvbit                              nvbit        000000
__Hnvrram                             nvrram       000000
__Hparam                              rparam       000000
__Hpowerup                            powerup      000000
__Hram                                ram          000000
__Hramtop                             ramtop       001500
__Hrbit                               rbit         000000
__Hrbss                               rbss         000000
__Hrdata                              rdata        000000
__Hreset_vec                          reset_vec    000004
__Hrparam                             rparam       000000
__Hsfr                                sfr          000000
__Hsmallconst                         smallconst   000000
__Hspace_0                            (abs)        010000
__Hspace_1                            (abs)        001500
__Hspace_2                            (abs)        000000
__Hspace_4                            (abs)        60000A
__Hstack                              stack        000000
__Hstruct                             struct       000000
__Htemp                               temp         000000
__Htext                               text         000000
__Htext0                              text0        000000
__Htext1                              text1        000000
__Htext10                             text10       000000
__Htext11                             text11       000000
__Htext12                             text12       000000
__Htext13                             text13       000000
__Htext14                             text14       000000
__Htext15                             text15       000000
__Htext16                             text16       000000
__Htext17                             text17       000000
__Htext18                             text18       000000
__Htext19                             text19       000000
__Htext2                              text2        000000
__Htext20                             text20       000000
__Htext21                             text21       000000
__Htext22                             text22       000000
__Htext23                             text23       000000
__Htext24                             text24       000000
__Htext25                             text25       000000
__Htext26                             text26       000000
__Htext27                             text27       000000
__Htext28                             text28       000000
__Htext29                             text29       000000
__Htext3                              text3        000000
__Htext30                             text30       000000
__Htext31                             text31       000000
__Htext32                             text32       000000
__Htext33                             text33       000000
__Htext34                             text34       000000
__Htext35                             text35       000000
__Htext36                             text36       000000
__Htext37                             text37       000000
__Htext38                             text38       000000
__Htext39                             text39       000000
__Htext4                              text4        000000
__Htext40                             text40       000000
__Htext41                             text41       000000
__Htext42                             text42       000000
__Htext43                             text43       000000
__Htext44                             text44       000000
__Htext45                             text45       000000
__Htext46                             text46       000000
__Htext47                             text47       000000
__Htext48                             text48       000000
__Htext49                             text49       000000
__Htext5                              text5        000000
__Htext50                             text50       000000
__Htext51                             text51       000000
__Htext52                             text52       000000
__Htext53                             text53       000000
__Htext54                             text54       000000
__Htext55                             text55       000000
__Htext56                             text56       000000
__Htext57                             text57       000000
__Htext58                             text58       000000
__Htext59                             text59       000000
__Htext6                              text6        000000
__Htext60                             text60       000000
__Htext61                             text61       000000
__Htext62                             text62       000000
__Htext63                             text63       000000
__Htext64                             text64       000000
__Htext65                             text65       000000
__Htext66                             text66       000000
__Htext67                             text67       000000
__Htext68                             text68       000000
__Htext69                             text69       000000
__Htext7                              text7        000000
__Htext70                             text70       000000
__Htext71                             text71       000000
__Htext72                             text72       000000
__Htext73                             text73       000000
__Htext74                             text74       000000
__Htext8                              text8        000000
__Htext9                              text9        000000
__LRAM                                (abs)        000001
__Labs1                               abs1         000000
__Lbank10                             bank10       000000
__Lbank11                             bank11       000000
__Lbank12                             bank12       000000
__Lbank13                             bank13       000000
__Lbank14                             bank14       000000
__Lbank15                             bank15       000000
__Lbank16                             bank16       000000
__Lbank17                             bank17       000000
__Lbank18                             bank18       000000
__Lbank19                             bank19       000000
__Lbank20                             bank20       000000
__Lbank5                              bank5        000000
__Lbank6                              bank6        000000
__Lbank7                              bank7        000000
__Lbank8                              bank8        000000
__Lbank9                              bank9        000000
__Lbigbss                             bigbss       000000
__Lbigdata                            bigdata      000000
__Lbigram                             bigram       000000
__Lbigsfr                             bigsfr       000000
__Lbss                                bss          000000
__LbssCOMRAM                          bssCOMRAM    000000
__Lcinit                              cinit        000000
__Lclrtext                            clrtext      000000
__Lcomram                             comram       000000
__Lconfig                             config       000000
__Lconst                              const        000000
__LcstackCOMRAM                       cstackCOMRAM 000000
__Ldata                               data         000000
__LdataBIGRAM                         dataBIGRAM   000000
__Leeprom_data                        eeprom_data  000000
__Lfarbss                             farbss       000000
__Lfardata                            fardata      000000
__Lheap                               heap         000000
__Libigdata                           ibigdata     000000
__Lidata                              idata        000000
__LidataBIGRAM                        idataBIGRAM  000000
__Lidloc                              idloc        000000
__Lifardata                           ifardata     000000
__Linit                               init         00FFFC
__Lintsave_regs                       intsave_regs 000000
__Lirdata                             irdata       000000
__Lmediumconst                        mediumconst  00EBB6
__LnvFARRAM                           nvFARRAM     000000
__Lnvbit                              nvbit        000000
__Lnvrram                             nvrram       000000
__Lparam                              rparam       000000
__Lpowerup                            powerup      000000
__Lram                                ram          000000
__Lramtop                             ramtop       001500
__Lrbit                               rbit         000000
__Lrbss                               rbss         000000
__Lrdata                              rdata        000000
__Lreset_vec                          reset_vec    000000
__Lrparam                             rparam       000000
__Lsfr                                sfr          000000
__Lsmallconst                         smallconst   000000
__Lspace_0                            (abs)        000000
__Lspace_1                            (abs)        000000
__Lspace_2                            (abs)        000000
__Lspace_4                            (abs)        000000
__Lstack                              stack        000000
__Lstruct                             struct       000000
__Ltemp                               temp         000000
__Ltext                               text         000000
__Ltext0                              text0        000000
__Ltext1                              text1        000000
__Ltext10                             text10       000000
__Ltext11                             text11       000000
__Ltext12                             text12       000000
__Ltext13                             text13       000000
__Ltext14                             text14       000000
__Ltext15                             text15       000000
__Ltext16                             text16       000000
__Ltext17                             text17       000000
__Ltext18                             text18       000000
__Ltext19                             text19       000000
__Ltext2                              text2        000000
__Ltext20                             text20       000000
__Ltext21                             text21       000000
__Ltext22                             text22       000000
__Ltext23                             text23       000000
__Ltext24                             text24       000000
__Ltext25                             text25       000000
__Ltext26                             text26       000000
__Ltext27                             text27       000000
__Ltext28                             text28       000000
__Ltext29                             text29       000000
__Ltext3                              text3        000000
__Ltext30                             text30       000000
__Ltext31                             text31       000000
__Ltext32                             text32       000000
__Ltext33                             text33       000000
__Ltext34                             text34       000000
__Ltext35                             text35       000000
__Ltext36                             text36       000000
__Ltext37                             text37       000000
__Ltext38                             text38       000000
__Ltext39                             text39       000000
__Ltext4                              text4        000000
__Ltext40                             text40       000000
__Ltext41                             text41       000000
__Ltext42                             text42       000000
__Ltext43                             text43       000000
__Ltext44                             text44       000000
__Ltext45                             text45       000000
__Ltext46                             text46       000000
__Ltext47                             text47       000000
__Ltext48                             text48       000000
__Ltext49                             text49       000000
__Ltext5                              text5        000000
__Ltext50                             text50       000000
__Ltext51                             text51       000000
__Ltext52                             text52       000000
__Ltext53                             text53       000000
__Ltext54                             text54       000000
__Ltext55                             text55       000000
__Ltext56                             text56       000000
__Ltext57                             text57       000000
__Ltext58                             text58       000000
__Ltext59                             text59       000000
__Ltext6                              text6        000000
__Ltext60                             text60       000000
__Ltext61                             text61       000000
__Ltext62                             text62       000000
__Ltext63                             text63       000000
__Ltext64                             text64       000000
__Ltext65                             text65       000000
__Ltext66                             text66       000000
__Ltext67                             text67       000000
__Ltext68                             text68       000000
__Ltext69                             text69       000000
__Ltext7                              text7        000000
__Ltext70                             text70       000000
__Ltext71                             text71       000000
__Ltext72                             text72       000000
__Ltext73                             text73       000000
__Ltext74                             text74       000000
__Ltext8                              text8        000000
__Ltext9                              text9        000000
__S0                                  (abs)        010000
__S1                                  (abs)        001500
__S4                                  (abs)        000000
__S5                                  (abs)        000000
___heap_hi                            (abs)        000000
___heap_lo                            (abs)        000000
___inthi_sp                           stack        000000
___intlo_sp                           stack        000000
___param_bank                         (abs)        000000
___rparam_used                        (abs)        000001
___sp                                 stack        000000
__accesstop                           (abs)        000560
__activetblptr                        (abs)        000003
__end_of_FONT_1                       mediumconst  00FFFA
__end_of_FONT_2                       mediumconst  00FD8F
__end_of_FONT_3                       mediumconst  00F79B
__end_of_I2C1_CallbackReturnReset     text55       00D7FA
__end_of_I2C1_CallbackReturnStop      text56       00D7F6
__end_of_I2C1_ClearInterruptFlags     text61       00DD3A
__end_of_I2C1_Close                   text68       00DB40
__end_of_I2C1_DO_ADDRESS_NACK         text21       00DEB6
__end_of_I2C1_DO_BUS_COLLISION        text20       00DF24
__end_of_I2C1_DO_BUS_ERROR            text19       00D8C6
__end_of_I2C1_DO_IDLE                 text36       00D884
__end_of_I2C1_DO_RESET                text22       00D8B8
__end_of_I2C1_DO_RX                   text32       00E240
__end_of_I2C1_DO_RX_ACK               text25       00D856
__end_of_I2C1_DO_RX_EMPTY             text30       00E2DC
__end_of_I2C1_DO_RX_NACK_RESTART      text23       00D85E
__end_of_I2C1_DO_RX_NACK_STOP         text24       00D8AA
__end_of_I2C1_DO_SEND_ADR_READ        text35       00DB6A
__end_of_I2C1_DO_SEND_ADR_WRITE       text34       00D8FC
__end_of_I2C1_DO_SEND_RESTART         text27       00D802
__end_of_I2C1_DO_SEND_RESTART_READ    text29       00D89C
__end_of_I2C1_DO_SEND_RESTART_WRITE   text28       00D7FE
__end_of_I2C1_DO_SEND_STOP            text26       00DAC6
__end_of_I2C1_DO_TX                   text33       00E4B8
__end_of_I2C1_DO_TX_ACK               text37       00D84E
__end_of_I2C1_DO_TX_EMPTY             text31       00E00E
__end_of_I2C1_Initialize              text5        00DB16
__end_of_I2C1_MasterClearCountFlag    text67       00D808
__end_of_I2C1_MasterClearIrq          text71       00D846
__end_of_I2C1_MasterClearNackFlag     text66       00D80E
__end_of_I2C1_MasterClearStopFlag     text65       00D814
__end_of_I2C1_MasterClose             text70       00D890
__end_of_I2C1_MasterDisableIrq        text69       00D9CC
__end_of_I2C1_MasterDisableRestart    text49       00D81A
__end_of_I2C1_MasterEnableRestart     text48       00D820
__end_of_I2C1_MasterFsm               text18       00DF96
__end_of_I2C1_MasterGetCounter        text40       00D83E
__end_of_I2C1_MasterGetRxData         text45       00D826
__end_of_I2C1_MasterIsCountFlagSet    text64       00D912
__end_of_I2C1_MasterIsNack            text39       00D96A
__end_of_I2C1_MasterIsNackFlagSet     text63       00D928
__end_of_I2C1_MasterIsRxBufFull       text44       00D954
__end_of_I2C1_MasterIsStopFlagSet     text62       00D93E
__end_of_I2C1_MasterIsTxBufEmpty      text38       00D980
__end_of_I2C1_MasterOpen              text13       00DAEE
__end_of_I2C1_MasterOperation         text15       00DCE8
__end_of_I2C1_MasterResetBus          text50       00D870
__end_of_I2C1_MasterSendAck           text43       00D82C
__end_of_I2C1_MasterSendNack          text42       00D832
__end_of_I2C1_MasterSendTxData        text46       00D87A
__end_of_I2C1_MasterSetCounter        text47       00D8D6
__end_of_I2C1_MasterStop              text41       00D838
__end_of_I2C1_MasterWaitForEvent      text17       00DD94
__end_of_I2C1_MasterWrite             text14       00D866
__end_of_I2C1_Open                    text12       00E1A8
__end_of_I2C1_Poller                  text16       00D9E8
__end_of_I2C1_SetAddressNackCallback  text11       00D9B0
__end_of_I2C1_SetBuffer               text60       00DA7C
__end_of_I2C1_SetCallback             text59       00E090
__end_of_I2C1_SetDataCompleteCallback text58       00D998
__end_of_I2C1_WriteNBytes             text10       00DDEE
__end_of_OLED_ClearDisplay            text72       00DA5A
__end_of_OLED_Init                    text7        00E39A
__end_of_OLED_SetFont                 text6        00E11A
__end_of_OLED_Update                  text8        00E626
__end_of_OSCILLATOR_Initialize        text4        00DA04
__end_of_PIN_MANAGER_Initialize       text3        00DE50
__end_of_PMD_Initialize               text2        00DA20
__end_of_SYSTEM_Initialize            text1        00D8E8
__end_of__initialization              cinit        00DC4A
__end_of_i2c1_fsmStateTable           mediumconst  00FDB5
__end_of_main                         text0        00DA3C
__end_of_memset                       text73       00E7B6
__end_of_rd1RegCompleteHandler        text54       00DBC2
__end_of_rd2RegCompleteHandler        text53       00DBEE
__end_of_rdBlkRegCompleteHandler      text51       00DC9C
__end_of_ssd1306_command              text9        00DA9E
__end_of_wr1RegCompleteHandler        text52       00DC1A
__end_of_wr2RegCompleteHandler        text57       00DB96
__initialization                      cinit        00DC1A
__mediumconst                         mediumconst  00EBB6
__pbssCOMRAM                          bssCOMRAM    000534
__pcinit                              cinit        00DC1A
__pcstackCOMRAM                       cstackCOMRAM 000501
__pdataBIGRAM                         dataBIGRAM   001100
__pidataBIGRAM                        idataBIGRAM  00E7B6
__pmediumconst                        mediumconst  00EBB6
__ptext0                              text0        00DA20
__ptext1                              text1        00D8D6
__ptext10                             text10       00DD94
__ptext11                             text11       00D998
__ptext12                             text12       00E11A
__ptext13                             text13       00DAC6
__ptext14                             text14       00D85E
__ptext15                             text15       00DC9C
__ptext16                             text16       00D9CC
__ptext17                             text17       00DD3A
__ptext18                             text18       00DF24
__ptext19                             text19       00D8B8
__ptext2                              text2        00DA04
__ptext20                             text20       00DEB6
__ptext21                             text21       00DE50
__ptext22                             text22       00D8AA
__ptext23                             text23       00D856
__ptext24                             text24       00D89C
__ptext25                             text25       00D84E
__ptext26                             text26       00DA9E
__ptext27                             text27       00D7FE
__ptext28                             text28       00D7FA
__ptext29                             text29       00D890
__ptext3                              text3        00DDEE
__ptext30                             text30       00E240
__ptext31                             text31       00DF96
__ptext32                             text32       00E1A8
__ptext33                             text33       00E39A
__ptext34                             text34       00D8E8
__ptext35                             text35       00DB40
__ptext36                             text36       00D87A
__ptext37                             text37       00D846
__ptext38                             text38       00D96A
__ptext39                             text39       00D954
__ptext4                              text4        00D9E8
__ptext40                             text40       00D838
__ptext41                             text41       00D832
__ptext42                             text42       00D82C
__ptext43                             text43       00D826
__ptext44                             text44       00D93E
__ptext45                             text45       00D820
__ptext46                             text46       00D870
__ptext47                             text47       00D8C6
__ptext48                             text48       00D81A
__ptext49                             text49       00D814
__ptext5                              text5        00DAEE
__ptext50                             text50       00D866
__ptext51                             text51       00DC50
__ptext52                             text52       00DBEE
__ptext53                             text53       00DBC2
__ptext54                             text54       00DB96
__ptext55                             text55       00D7F6
__ptext56                             text56       00D7F2
__ptext57                             text57       00DB6A
__ptext58                             text58       00D980
__ptext59                             text59       00E00E
__ptext6                              text6        00E090
__ptext60                             text60       00DA5A
__ptext61                             text61       00DCE8
__ptext62                             text62       00D928
__ptext63                             text63       00D912
__ptext64                             text64       00D8FC
__ptext65                             text65       00D80E
__ptext66                             text66       00D808
__ptext67                             text67       00D802
__ptext68                             text68       00DB16
__ptext69                             text69       00D9B0
__ptext7                              text7        00E2DC
__ptext70                             text70       00D884
__ptext71                             text71       00D83E
__ptext72                             text72       00DA3C
__ptext73                             text73       00E626
__ptext74                             text74       000000
__ptext8                              text8        00E4B8
__ptext9                              text9        00DA7C
__ramtop                              ramtop       001500
__smallconst                          smallconst   000000
_buffer                               dataBIGRAM   001100
_cfont                                bssCOMRAM    000558
_i2c1_fsmStateTable                   mediumconst  00FD8F
_main                                 text0        00DA20
_memset                               text73       00E626
_rd1RegCompleteHandler                text54       00DB96
_rd2RegCompleteHandler                text53       00DBC2
_rdBlkRegCompleteHandler              text51       00DC50
_ssd1306_command                      text9        00DA7C
_wr1RegCompleteHandler                text52       00DBEE
_wr2RegCompleteHandler                text57       00DB6A
end_of_initialization                 cinit        00DC4A
intlevel0                             text         000000
intlevel1                             text         000000
intlevel2                             text         000000
intlevel3                             text         000000
isa$std                               (abs)        000001
isa$xinst                             (abs)        000000
memset@c                              cstackCOMRAM 000503
memset@dest                           cstackCOMRAM 000501
memset@k                              cstackCOMRAM 000509
memset@n                              cstackCOMRAM 000505
memset@s                              cstackCOMRAM 00050B
rd1RegCompleteHandler@ptr             cstackCOMRAM 00050A
rd2RegCompleteHandler@ptr             cstackCOMRAM 00050A
rdBlkRegCompleteHandler@ptr           cstackCOMRAM 00050A
ssd1306_command@command               cstackCOMRAM 00051B
ssd1306_command@data_I2C              cstackCOMRAM 00051C
stackhi                               (abs)        000000
stacklo                               (abs)        000000
start                                 init         00FFFC
start_initialization                  cinit        00DC1A
wr1RegCompleteHandler@ptr             cstackCOMRAM 00050A
wr2RegCompleteHandler@ptr             cstackCOMRAM 00050A


MODULE INFORMATION

Module		Function		Class		Link	Load	Size
mcc_generated_files/examples/i2c1_master_example.c
		_wr1RegCompleteHandler		CODE           	DBEE	0000	44
		_wr2RegCompleteHandler		CODE           	DB6A	0000	44
		_rdBlkRegCompleteHandler		CODE           	DC50	0000	76
		_rd1RegCompleteHandler		CODE           	DB96	0000	44
		_rd2RegCompleteHandler		CODE           	DBC2	0000	44
		_I2C1_WriteNBytes		CODE           	DD94	0000	90

mcc_generated_files/examples/i2c1_master_example.c estimated size: 342

mcc_generated_files/i2c1_master.c
		_I2C1_DO_SEND_RESTART		CODE           	D7FE	0000	4
		_I2C1_MasterIsNackFlagSet		CODE           	D912	0000	22
		_I2C1_DO_RX_EMPTY		CODE           	E240	0000	156
		_I2C1_DO_TX_EMPTY		CODE           	DF96	0000	120
		_I2C1_DO_SEND_RESTART_READ		CODE           	D890	0000	12
		_I2C1_MasterClearNackFlag		CODE           	D808	0000	6
		_I2C1_CallbackReturnStop		CODE           	D7F2	0000	4
		_I2C1_DO_RX    		CODE           	E1A8	0000	152
		_I2C1_DO_TX    		CODE           	E39A	0000	286
		_I2C1_SetAddressNackCallback		CODE           	D998	0000	24
		_I2C1_DO_IDLE  		CODE           	D87A	0000	10
		_I2C1_MasterOpen		CODE           	DAC6	0000	40
		_I2C1_MasterSendTxData		CODE           	D870	0000	10
		_I2C1_MasterStop		CODE           	D832	0000	6
		_I2C1_MasterIsStopFlagSet		CODE           	D928	0000	22
		_I2C1_CallbackReturnReset		CODE           	D7F6	0000	4
		_I2C1_DO_RESET 		CODE           	D8AA	0000	14
		_I2C1_Poller   		CODE           	D9CC	0000	28
		_I2C1_DO_RX_ACK		CODE           	D84E	0000	8
		_I2C1_DO_TX_ACK		CODE           	D846	0000	8
		_I2C1_MasterWaitForEvent		CODE           	DD3A	0000	90
		_I2C1_MasterSendNack		CODE           	D82C	0000	6
		_I2C1_DO_RX_NACK_RESTART		CODE           	D856	0000	8
		_I2C1_MasterDisableIrq		CODE           	D9B0	0000	28
		_I2C1_ClearInterruptFlags		CODE           	DCE8	0000	82
		_I2C1_MasterOperation		CODE           	DC9C	0000	76
		_I2C1_MasterClearStopFlag		CODE           	D80E	0000	6
		_I2C1_SetCallback		CODE           	E00E	0000	130
		_I2C1_MasterEnableRestart		CODE           	D81A	0000	6
		_I2C1_MasterGetCounter		CODE           	D838	0000	6
		_I2C1_MasterSetCounter		CODE           	D8C6	0000	16
		_I2C1_Open     		CODE           	E11A	0000	142
		_I2C1_DO_ADDRESS_NACK		CODE           	DE50	0000	102
		_I2C1_MasterDisableRestart		CODE           	D814	0000	6
		_I2C1_MasterClearCountFlag		CODE           	D802	0000	6
		_I2C1_SetBuffer		CODE           	DA5A	0000	34
		_I2C1_DO_SEND_RESTART_WRITE		CODE           	D7FA	0000	4
		_I2C1_MasterIsTxBufEmpty		CODE           	D96A	0000	22
		_I2C1_MasterClose		CODE           	D884	0000	12
		_I2C1_MasterWrite		CODE           	D85E	0000	8
		_I2C1_Initialize		CODE           	DAEE	0000	40
		_I2C1_Close    		CODE           	DB16	0000	42
		_I2C1_MasterIsRxBufFull		CODE           	D93E	0000	22
		_I2C1_MasterIsNack		CODE           	D954	0000	22
		_I2C1_DO_SEND_ADR_WRITE		CODE           	D8E8	0000	20
		_I2C1_MasterClearIrq		CODE           	D83E	0000	8
		_I2C1_SetDataCompleteCallback		CODE           	D980	0000	24
		_I2C1_DO_SEND_STOP		CODE           	DA9E	0000	40
		_I2C1_DO_BUS_COLLISION		CODE           	DEB6	0000	110
		_I2C1_DO_BUS_ERROR		CODE           	D8B8	0000	14
		_I2C1_MasterSendAck		CODE           	D826	0000	6
		_I2C1_MasterFsm		CODE           	DF24	0000	114
		_I2C1_MasterGetRxData		CODE           	D820	0000	6
		_I2C1_MasterResetBus		CODE           	D866	0000	10
		_I2C1_MasterIsCountFlagSet		CODE           	D8FC	0000	22
		_I2C1_DO_SEND_ADR_READ		CODE           	DB40	0000	42
		_I2C1_DO_RX_NACK_STOP		CODE           	D89C	0000	14

mcc_generated_files/i2c1_master.c estimated size: 2282

mcc_generated_files/pin_manager.c
		_PIN_MANAGER_Initialize		CODE           	DDEE	0000	98

mcc_generated_files/pin_manager.c estimated size: 98

C:\Program Files\Microchip\xc8\v2.36\pic\sources\c99\common\memset.c
		_memset        		CODE           	E626	0000	400

C:\Program Files\Microchip\xc8\v2.36\pic\sources\c99\common\memset.c estimated size: 400

shared
		_FONT_1        		MEDIUMCONST    	FDB5	0000	581
		__initialization		CODE           	DC1A	0000	48
		_FONT_2        		MEDIUMCONST    	F79B	0000	1524
		_i2c1_fsmStateTable		MEDIUMCONST    	FD8F	0000	38
		_FONT_3        		MEDIUMCONST    	EBB7	0000	3044

shared estimated size: 5235

mcc_generated_files/mcc.c
		_PMD_Initialize		CODE           	DA04	0000	28
		_OSCILLATOR_Initialize		CODE           	D9E8	0000	28
		_SYSTEM_Initialize		CODE           	D8D6	0000	18

mcc_generated_files/mcc.c estimated size: 74

OLED.c
		_OLED_Update   		CODE           	E4B8	0000	366
		_ssd1306_command		CODE           	DA7C	0000	34
		_OLED_ClearDisplay		CODE           	DA3C	0000	30
		_OLED_Init     		CODE           	E2DC	0000	190
		_OLED_SetFont  		CODE           	E090	0000	138

OLED.c estimated size: 758

main.c
		_main          		CODE           	DA20	0000	28

main.c estimated size: 28

